target datalayout = "e-m:e-p270:32:32-p271:32:32-p272:64:64-i64:64-i128:128-f80:128-n8:16:32:64-S128"
target triple = "x86_64-pc-linux-gnu"

%struct.__va_list_tag = type { i32, i32, ptr, ptr }

@_ZL14g_warning_msgs = internal global i8 1, align 1
@_ZL16g_warning_stream = internal global ptr null, align 8
@.str.2 = private unnamed_addr constant [10 x i8] c"WARNING: \00", align 1

; Function Attrs: mustprogress uwtable
define hidden void @_Z11warning_msgPKcz(ptr noundef %0, ...) #5 {
  %2 = alloca ptr, align 8
  %3 = alloca [1 x %struct.__va_list_tag], align 16
  store ptr %0, ptr %2, align 8, !tbaa !12
  %4 = load i8, ptr @_ZL14g_warning_msgs, align 1, !tbaa !3, !range !7, !noundef !8
  %5 = trunc i8 %4 to i1
  br i1 %5, label %6, label %12

6:                                                ; preds = %1
  call void @llvm.lifetime.start.p0(i64 24, ptr %3) #3
  %7 = getelementptr inbounds [1 x %struct.__va_list_tag], ptr %3, i64 0, i64 0
  call void @llvm.va_start.p0(ptr %7)
  %8 = load ptr, ptr @_ZL16g_warning_stream, align 8, !tbaa !9
  %9 = load ptr, ptr %2, align 8, !tbaa !12
  %10 = getelementptr inbounds [1 x %struct.__va_list_tag], ptr %3, i64 0, i64 0
  call void @_Z9print_msgPSoPKcS1_P13__va_list_tag(ptr noundef %8, ptr noundef @.str.2, ptr noundef %9, ptr noundef %10)
  %11 = getelementptr inbounds [1 x %struct.__va_list_tag], ptr %3, i64 0, i64 0
  call void @llvm.va_end.p0(ptr %11)
  call void @llvm.lifetime.end.p0(i64 24, ptr %3) #3
  br label %12

12:                                               ; preds = %6, %1
  ret void
}