; Function Attrs: mustprogress uwtable
define hidden void @_Z11warning_msgPKcz(ptr noundef readonly captures(none) %0, ...) local_unnamed_addr #5 {
  %2 = alloca [1 x %struct.__va_list_tag], align 16
  %3 = load i8, ptr @_ZL14g_warning_msgs, align 1, !tbaa !3, !range !28, !noundef !29
  %4 = trunc nuw i8 %3 to i1
  br i1 %4, label %5, label %7

5:                                                ; preds = %1
  call void @llvm.lifetime.start.p0(i64 24, ptr nonnull %2) #22
  call void @llvm.va_start.p0(ptr nonnull %2)
  %6 = load ptr, ptr @_ZL16g_warning_stream, align 8, !tbaa !7
  call void @_Z9print_msgPSoPKcS1_P13__va_list_tag(ptr noundef %6, ptr noundef nonnull @.str.2, ptr noundef %0, ptr noundef nonnull %2)
  call void @llvm.va_end.p0(ptr nonnull %2)
  call void @llvm.lifetime.end.p0(i64 24, ptr nonnull %2) #22
  br label %7

7:                                                ; preds = %5, %1
  ret void
}